; Function Attrs: nounwind uwtable
define zeroext i8 @l_Std_Tactic_BVDecide_LRAT_check(ptr noundef %0, ptr noundef %1) local_unnamed_addr #0 {
  %3 = ptrtoint ptr %1 to i64
  %4 = and i64 %3, 1
  %.not = icmp eq i64 %4, 0
  br i1 %.not, label %5, label %lean_inc.exit24

5:                                                ; preds = %2
  %.val.i = load i32, ptr %1, align 4, !tbaa !4
  %6 = icmp sgt i32 %.val.i, 0
  br i1 %6, label %7, label %9, !prof !11

7:                                                ; preds = %5
  %8 = add nuw i32 %.val.i, 1
  store i32 %8, ptr %1, align 4, !tbaa !4
  br label %lean_inc.exit24

9:                                                ; preds = %5
  %.not.i31 = icmp eq i32 %.val.i, 0
  br i1 %.not.i31, label %lean_inc.exit24, label %10

10:                                               ; preds = %9
  tail call void @lean_inc_ref_cold(ptr noundef nonnull %1) #4
  br label %lean_inc.exit24

lean_inc.exit24:                                  ; preds = %10, %9, %7, %2
  %11 = tail call ptr @l_Std_Tactic_BVDecide_LRAT_Internal_CNF_convertLRAT(ptr noundef %1) #4
  %12 = tail call ptr @lean_array_to_list(ptr noundef %0) #4
  br i1 %.not, label %13, label %lean_inc.exit

13:                                               ; preds = %lean_inc.exit24
  %.val.i32 = load i32, ptr %1, align 4, !tbaa !4
  %14 = icmp sgt i32 %.val.i32, 0
  br i1 %14, label %15, label %17, !prof !11

15:                                               ; preds = %13
  %16 = add nuw i32 %.val.i32, 1
  store i32 %16, ptr %1, align 4, !tbaa !4
  br label %lean_inc.exit

17:                                               ; preds = %13
  %.not.i33 = icmp eq i32 %.val.i32, 0
  br i1 %.not.i33, label %lean_inc.exit, label %18

18:                                               ; preds = %17
  tail call void @lean_inc_ref_cold(ptr noundef nonnull %1) #4
  br label %lean_inc.exit

lean_inc.exit:                                    ; preds = %18, %17, %15, %lean_inc.exit24
  %19 = tail call ptr @l_Std_Sat_CNF_numLiterals(ptr noundef %1) #4
  %20 = ptrtoint ptr %19 to i64
  %21 = and i64 %20, 1
  %.not38 = icmp eq i64 %21, 0
  br i1 %.not38, label %32, label %22, !prof !13

22:                                               ; preds = %lean_inc.exit
  %23 = lshr i64 %20, 1
  %24 = add nuw i64 %23, 1
  %25 = icmp sgt i64 %24, -1
  br i1 %25, label %26, label %30, !prof !11

26:                                               ; preds = %22
  %27 = shl nuw i64 %24, 1
  %28 = or disjoint i64 %27, 1
  %29 = inttoptr i64 %28 to ptr
  br label %lean_dec.exit26

30:                                               ; preds = %22
  %31 = tail call ptr @lean_big_usize_to_nat(i64 noundef range(i64 0, -1) %24) #4
  br label %lean_dec.exit26

32:                                               ; preds = %lean_inc.exit
  %33 = tail call ptr @lean_nat_big_add(ptr noundef %19, ptr noundef nonnull inttoptr (i64 3 to ptr)) #4
  %34 = load i32, ptr %19, align 4, !tbaa !4
  %35 = icmp sgt i32 %34, 1
  br i1 %35, label %36, label %38, !prof !11

36:                                               ; preds = %32
  %37 = add nsw i32 %34, -1
  store i32 %37, ptr %19, align 4, !tbaa !4
  br label %lean_dec.exit26

38:                                               ; preds = %32
  %.not.i = icmp eq i32 %34, 0
  br i1 %.not.i, label %lean_dec.exit26, label %39

39:                                               ; preds = %38
  tail call void @lean_dec_ref_cold(ptr noundef nonnull %19) #4
  br label %lean_dec.exit26

lean_dec.exit26:                                  ; preds = %26, %30, %39, %38, %36
  %.0.i37 = phi ptr [ %33, %36 ], [ %33, %38 ], [ %33, %39 ], [ %31, %30 ], [ %29, %26 ]
  %40 = tail call ptr @l_List_mapTR_loop___at_Std_Tactic_BVDecide_LRAT_check___spec__1(ptr poison, ptr noundef %.0.i37, ptr noundef %12, ptr noundef nonnull inttoptr (i64 1 to ptr))
  %41 = load ptr, ptr @l_Std_Tactic_BVDecide_LRAT_check___closed__1, align 8, !tbaa !9
  %42 = tail call ptr @l_List_filterMapTR_go___at_Std_Tactic_BVDecide_LRAT_check___spec__2(ptr poison, ptr poison, ptr noundef %40, ptr noundef %41)
  %43 = tail call zeroext i8 @l_Std_Tactic_BVDecide_LRAT_Internal_lratChecker___at_Std_Tactic_BVDecide_LRAT_check___spec__3(ptr poison, ptr noundef %.0.i37, ptr noundef %11, ptr noundef %42)
  %44 = ptrtoint ptr %.0.i37 to i64
  %45 = and i64 %44, 1
  %.not39 = icmp eq i64 %45, 0
  br i1 %.not39, label %46, label %lean_dec.exit25

46:                                               ; preds = %lean_dec.exit26
  %47 = load i32, ptr %.0.i37, align 4, !tbaa !4
  %48 = icmp sgt i32 %47, 1
  br i1 %48, label %49, label %51, !prof !11

49:                                               ; preds = %46
  %50 = add nsw i32 %47, -1
  store i32 %50, ptr %.0.i37, align 4, !tbaa !4
  br label %lean_dec.exit25

51:                                               ; preds = %46
  %.not.i27 = icmp eq i32 %47, 0
  br i1 %.not.i27, label %lean_dec.exit25, label %52

52:                                               ; preds = %51
  tail call void @lean_dec_ref_cold(ptr noundef nonnull %.0.i37) #4
  br label %lean_dec.exit25

lean_dec.exit25:                                  ; preds = %52, %51, %49, %lean_dec.exit26
  br i1 %.not, label %53, label %lean_dec.exit

53:                                               ; preds = %lean_dec.exit25
  %54 = load i32, ptr %1, align 4, !tbaa !4
  %55 = icmp sgt i32 %54, 1
  br i1 %55, label %56, label %58, !prof !11

56:                                               ; preds = %53
  %57 = add nsw i32 %54, -1
  store i32 %57, ptr %1, align 4, !tbaa !4
  br label %lean_dec.exit

58:                                               ; preds = %53
  %.not.i29 = icmp eq i32 %54, 0
  br i1 %.not.i29, label %lean_dec.exit, label %59

59:                                               ; preds = %58
  tail call void @lean_dec_ref_cold(ptr noundef nonnull %1) #4
  br label %lean_dec.exit

lean_dec.exit:                                    ; preds = %59, %58, %56, %lean_dec.exit25
  %60 = tail call zeroext i8 @l_Std_Tactic_BVDecide_LRAT_Internal_instDecidableEqResult(i8 noundef zeroext %43, i8 noundef zeroext 0) #4
  ret i8 %60
}